target datalayout = "e-m:e-p270:32:32-p271:32:32-p272:64:64-i64:64-i128:128-f80:128-n8:16:32:64-S128"
target triple = "x86_64-pc-linux-gnu"

%struct.block_record_t = type { i32, ptr, ptr, ptr, i16 }
%struct.topoinfo_block = type { i32, ptr }
%struct.topoinfo_bblock = type { i8, i16, ptr, ptr, i32 }
%struct.dynamic_plugin_data = type { ptr, i32 }

@block_record_cnt = external global i32, align 4
@block_record_table = external global ptr, align 8
@ablock_record_cnt = external global i32, align 4
@.str.3 = private unnamed_addr constant [17 x i8] c"topology_block.c\00", align 1
@__func__.topology_p_get = private unnamed_addr constant [15 x i8] c"topology_p_get\00", align 1
@bblock_node_cnt = external global i16, align 2
@block_sizes = external global [16 x i32], align 16
@.str.4 = private unnamed_addr constant [22 x i8] c"Unsupported option %d\00", align 1

; Function Attrs: nounwind uwtable
define dso_local i32 @topology_p_get(i32 noundef %0, ptr noundef %1) #0 {
  %3 = alloca i32, align 4
  %4 = alloca ptr, align 8
  %5 = alloca i32, align 4
  %6 = alloca ptr, align 8
  %7 = alloca ptr, align 8
  %8 = alloca i32, align 4
  %9 = alloca ptr, align 8
  %10 = alloca ptr, align 8
  store i32 %0, ptr %3, align 4
  store ptr %1, ptr %4, align 8
  call void @llvm.lifetime.start.p0(i64 4, ptr %5) #8
  store i32 0, ptr %5, align 4
  %11 = load i32, ptr %3, align 4
  switch i32 %11, label %131 [
    i32 0, label %12
    i32 1, label %124
    i32 2, label %128
  ]

12:                                               ; preds = %2
  call void @llvm.lifetime.start.p0(i64 8, ptr %6) #8
  %13 = load ptr, ptr %4, align 8
  store ptr %13, ptr %6, align 8
  call void @llvm.lifetime.start.p0(i64 8, ptr %7) #8
  %14 = call ptr @slurm_xcalloc(i64 noundef 1, i64 noundef 16, i1 noundef zeroext true, i1 noundef zeroext false, ptr noundef @.str.3, i32 noundef 279, ptr noundef @__func__.topology_p_get)
  store ptr %14, ptr %7, align 8
  %15 = call ptr @slurm_xcalloc(i64 noundef 1, i64 noundef 16, i1 noundef zeroext true, i1 noundef zeroext false, ptr noundef @.str.3, i32 noundef 281, ptr noundef @__func__.topology_p_get)
  %16 = load ptr, ptr %6, align 8
  store ptr %15, ptr %16, align 8
  %17 = load ptr, ptr %7, align 8
  %18 = load ptr, ptr %6, align 8
  %19 = load ptr, ptr %18, align 8
  %20 = getelementptr inbounds nuw %struct.dynamic_plugin_data, ptr %19, i32 0, i32 0
  store ptr %17, ptr %20, align 8
  %21 = load ptr, ptr %6, align 8
  %22 = load ptr, ptr %21, align 8
  %23 = getelementptr inbounds nuw %struct.dynamic_plugin_data, ptr %22, i32 0, i32 1
  store i32 103, ptr %23, align 8
  %24 = load i32, ptr @block_record_cnt, align 4
  %25 = load i32, ptr @ablock_record_cnt, align 4
  %26 = add nsw i32 %24, %25
  %27 = load ptr, ptr %7, align 8
  %28 = getelementptr inbounds nuw %struct.topoinfo_block, ptr %27, i32 0, i32 0
  store i32 %26, ptr %28, align 8
  %29 = load ptr, ptr %7, align 8
  %30 = getelementptr inbounds nuw %struct.topoinfo_block, ptr %29, i32 0, i32 0
  %31 = load i32, ptr %30, align 8
  %32 = zext i32 %31 to i64
  %33 = call ptr @slurm_xcalloc(i64 noundef %32, i64 noundef 32, i1 noundef zeroext true, i1 noundef zeroext false, ptr noundef @.str.3, i32 noundef 288, ptr noundef @__func__.topology_p_get)
  %34 = load ptr, ptr %7, align 8
  %35 = getelementptr inbounds nuw %struct.topoinfo_block, ptr %34, i32 0, i32 1
  store ptr %33, ptr %35, align 8
  call void @llvm.lifetime.start.p0(i64 4, ptr %8) #8
  store i32 0, ptr %8, align 4
  br label %36

36:                                               ; preds = %120, %12
  %37 = load i32, ptr %8, align 4
  %38 = load ptr, ptr %7, align 8
  %39 = getelementptr inbounds nuw %struct.topoinfo_block, ptr %38, i32 0, i32 0
  %40 = load i32, ptr %39, align 8
  %41 = icmp ult i32 %37, %40
  br i1 %41, label %43, label %42

42:                                               ; preds = %36
  call void @llvm.lifetime.end.p0(i64 4, ptr %8) #8
  br label %123

43:                                               ; preds = %36
  %44 = load ptr, ptr @block_record_table, align 8
  %45 = load i32, ptr %8, align 4
  %46 = sext i32 %45 to i64
  %47 = getelementptr inbounds %struct.block_record_t, ptr %44, i64 %46
  %48 = getelementptr inbounds nuw %struct.block_record_t, ptr %47, i32 0, i32 4
  %49 = load i16, ptr %48, align 8
  %50 = load ptr, ptr %7, align 8
  %51 = getelementptr inbounds nuw %struct.topoinfo_block, ptr %50, i32 0, i32 1
  %52 = load ptr, ptr %51, align 8
  %53 = load i32, ptr %8, align 4
  %54 = sext i32 %53 to i64
  %55 = getelementptr inbounds %struct.topoinfo_bblock, ptr %52, i64 %54
  %56 = getelementptr inbounds nuw %struct.topoinfo_bblock, ptr %55, i32 0, i32 1
  store i16 %49, ptr %56, align 2
  %57 = load ptr, ptr @block_record_table, align 8
  %58 = load i32, ptr %8, align 4
  %59 = sext i32 %58 to i64
  %60 = getelementptr inbounds %struct.block_record_t, ptr %57, i64 %59
  %61 = getelementptr inbounds nuw %struct.block_record_t, ptr %60, i32 0, i32 1
  %62 = load ptr, ptr %61, align 8
  %63 = call ptr @slurm_xstrdup(ptr noundef %62)
  %64 = load ptr, ptr %7, align 8
  %65 = getelementptr inbounds nuw %struct.topoinfo_block, ptr %64, i32 0, i32 1
  %66 = load ptr, ptr %65, align 8
  %67 = load i32, ptr %8, align 4
  %68 = sext i32 %67 to i64
  %69 = getelementptr inbounds %struct.topoinfo_bblock, ptr %66, i64 %68
  %70 = getelementptr inbounds nuw %struct.topoinfo_bblock, ptr %69, i32 0, i32 2
  store ptr %63, ptr %70, align 8
  %71 = load ptr, ptr @block_record_table, align 8
  %72 = load i32, ptr %8, align 4
  %73 = sext i32 %72 to i64
  %74 = getelementptr inbounds %struct.block_record_t, ptr %71, i64 %73
  %75 = getelementptr inbounds nuw %struct.block_record_t, ptr %74, i32 0, i32 3
  %76 = load ptr, ptr %75, align 8
  %77 = call ptr @slurm_xstrdup(ptr noundef %76)
  %78 = load ptr, ptr %7, align 8
  %79 = getelementptr inbounds nuw %struct.topoinfo_block, ptr %78, i32 0, i32 1
  %80 = load ptr, ptr %79, align 8
  %81 = load i32, ptr %8, align 4
  %82 = sext i32 %81 to i64
  %83 = getelementptr inbounds %struct.topoinfo_bblock, ptr %80, i64 %82
  %84 = getelementptr inbounds nuw %struct.topoinfo_bblock, ptr %83, i32 0, i32 3
  store ptr %77, ptr %84, align 8
  %85 = load ptr, ptr @block_record_table, align 8
  %86 = load i32, ptr %8, align 4
  %87 = sext i32 %86 to i64
  %88 = getelementptr inbounds %struct.block_record_t, ptr %85, i64 %87
  %89 = getelementptr inbounds nuw %struct.block_record_t, ptr %88, i32 0, i32 0
  %90 = load i32, ptr %89, align 8
  %91 = icmp ne i32 %90, 0
  br i1 %91, label %92, label %100

92:                                               ; preds = %43
  %93 = load ptr, ptr %7, align 8
  %94 = getelementptr inbounds nuw %struct.topoinfo_block, ptr %93, i32 0, i32 1
  %95 = load ptr, ptr %94, align 8
  %96 = load i32, ptr %8, align 4
  %97 = sext i32 %96 to i64
  %98 = getelementptr inbounds %struct.topoinfo_bblock, ptr %95, i64 %97
  %99 = getelementptr inbounds nuw %struct.topoinfo_bblock, ptr %98, i32 0, i32 0
  store i8 1, ptr %99, align 8
  br label %100

100:                                              ; preds = %92, %43
  %101 = load i16, ptr @bblock_node_cnt, align 2
  %102 = zext i16 %101 to i32
  %103 = load ptr, ptr @block_record_table, align 8
  %104 = load i32, ptr %8, align 4
  %105 = sext i32 %104 to i64
  %106 = getelementptr inbounds %struct.block_record_t, ptr %103, i64 %105
  %107 = getelementptr inbounds nuw %struct.block_record_t, ptr %106, i32 0, i32 0
  %108 = load i32, ptr %107, align 8
  %109 = sext i32 %108 to i64
  %110 = getelementptr inbounds [16 x i32], ptr @block_sizes, i64 0, i64 %109
  %111 = load i32, ptr %110, align 4
  %112 = mul i32 %102, %111
  %113 = load ptr, ptr %7, align 8
  %114 = getelementptr inbounds nuw %struct.topoinfo_block, ptr %113, i32 0, i32 1
  %115 = load ptr, ptr %114, align 8
  %116 = load i32, ptr %8, align 4
  %117 = sext i32 %116 to i64
  %118 = getelementptr inbounds %struct.topoinfo_bblock, ptr %115, i64 %117
  %119 = getelementptr inbounds nuw %struct.topoinfo_bblock, ptr %118, i32 0, i32 4
  store i32 %112, ptr %119, align 8
  br label %120

120:                                              ; preds = %100
  %121 = load i32, ptr %8, align 4
  %122 = add nsw i32 %121, 1
  store i32 %122, ptr %8, align 4
  br label %36, !llvm.loop !14

123:                                              ; preds = %42
  call void @llvm.lifetime.end.p0(i64 8, ptr %7) #8
  call void @llvm.lifetime.end.p0(i64 8, ptr %6) #8
  br label %134

124:                                              ; preds = %2
  call void @llvm.lifetime.start.p0(i64 8, ptr %9) #8
  %125 = load ptr, ptr %4, align 8
  store ptr %125, ptr %9, align 8
  %126 = load i32, ptr @block_record_cnt, align 4
  %127 = load ptr, ptr %9, align 8
  store i32 %126, ptr %127, align 4
  call void @llvm.lifetime.end.p0(i64 8, ptr %9) #8
  br label %134

128:                                              ; preds = %2
  call void @llvm.lifetime.start.p0(i64 8, ptr %10) #8
  %129 = load ptr, ptr %4, align 8
  store ptr %129, ptr %10, align 8
  %130 = load ptr, ptr %10, align 8
  store i32 1, ptr %130, align 4
  call void @llvm.lifetime.end.p0(i64 8, ptr %10) #8
  br label %134

131:                                              ; preds = %2
  %132 = load i32, ptr %3, align 4
  %133 = call i32 (ptr, ...) @slurm_error(ptr noundef @.str.4, i32 noundef %132)
  store i32 -1, ptr %5, align 4
  br label %134

134:                                              ; preds = %131, %128, %124, %123
  %135 = load i32, ptr %5, align 4
  call void @llvm.lifetime.end.p0(i64 4, ptr %5) #8
  ret i32 %135
}