; Function Attrs: nounwind uwtable
define dso_local range(i32 -1, 1) i32 @topology_p_get(i32 noundef %0, ptr noundef captures(none) %1) local_unnamed_addr #0 {
  switch i32 %0, label %54 [
    i32 0, label %3
    i32 1, label %51
    i32 2, label %53
  ]

3:                                                ; preds = %2
  %4 = tail call ptr @slurm_xcalloc(i64 noundef 1, i64 noundef 16, i1 noundef zeroext true, i1 noundef zeroext false, ptr noundef nonnull @.str.3, i32 noundef 279, ptr noundef nonnull @__func__.topology_p_get) #9
  %5 = tail call ptr @slurm_xcalloc(i64 noundef 1, i64 noundef 16, i1 noundef zeroext true, i1 noundef zeroext false, ptr noundef nonnull @.str.3, i32 noundef 281, ptr noundef nonnull @__func__.topology_p_get) #9
  store ptr %5, ptr %1, align 8
  store ptr %4, ptr %5, align 8
  %6 = load ptr, ptr %1, align 8
  %7 = getelementptr inbounds nuw i8, ptr %6, i64 8
  store i32 103, ptr %7, align 8
  %8 = load i32, ptr @block_record_cnt, align 4
  %9 = load i32, ptr @ablock_record_cnt, align 4
  %10 = add nsw i32 %9, %8
  store i32 %10, ptr %4, align 8
  %11 = zext i32 %10 to i64
  %12 = tail call ptr @slurm_xcalloc(i64 noundef %11, i64 noundef 32, i1 noundef zeroext true, i1 noundef zeroext false, ptr noundef nonnull @.str.3, i32 noundef 288, ptr noundef nonnull @__func__.topology_p_get) #9
  %13 = getelementptr inbounds nuw i8, ptr %4, i64 8
  store ptr %12, ptr %13, align 8
  %14 = load i32, ptr %4, align 8
  %.not34 = icmp eq i32 %14, 0
  br i1 %.not34, label %.loopexit, label %.lr.ph

.lr.ph:                                           ; preds = %3, %39
  %indvars.iv = phi i64 [ %indvars.iv.next, %39 ], [ 0, %3 ]
  %15 = load ptr, ptr @block_record_table, align 8
  %16 = getelementptr inbounds nuw %struct.block_record_t, ptr %15, i64 %indvars.iv, i32 4
  %17 = load i16, ptr %16, align 8
  %18 = load ptr, ptr %13, align 8
  %19 = getelementptr inbounds nuw %struct.topoinfo_bblock, ptr %18, i64 %indvars.iv, i32 1
  store i16 %17, ptr %19, align 2
  %20 = load ptr, ptr @block_record_table, align 8
  %21 = getelementptr inbounds nuw %struct.block_record_t, ptr %20, i64 %indvars.iv, i32 1
  %22 = load ptr, ptr %21, align 8
  %23 = tail call ptr @slurm_xstrdup(ptr noundef %22) #9
  %24 = load ptr, ptr %13, align 8
  %25 = getelementptr inbounds nuw %struct.topoinfo_bblock, ptr %24, i64 %indvars.iv, i32 2
  store ptr %23, ptr %25, align 8
  %26 = load ptr, ptr @block_record_table, align 8
  %27 = getelementptr inbounds nuw %struct.block_record_t, ptr %26, i64 %indvars.iv, i32 3
  %28 = load ptr, ptr %27, align 8
  %29 = tail call ptr @slurm_xstrdup(ptr noundef %28) #9
  %30 = load ptr, ptr %13, align 8
  %31 = getelementptr inbounds nuw %struct.topoinfo_bblock, ptr %30, i64 %indvars.iv, i32 3
  store ptr %29, ptr %31, align 8
  %32 = load ptr, ptr @block_record_table, align 8
  %33 = getelementptr inbounds nuw %struct.block_record_t, ptr %32, i64 %indvars.iv
  %34 = load i32, ptr %33, align 8
  %.not = icmp eq i32 %34, 0
  br i1 %.not, label %39, label %35

35:                                               ; preds = %.lr.ph
  %36 = load ptr, ptr %13, align 8
  %37 = getelementptr inbounds nuw %struct.topoinfo_bblock, ptr %36, i64 %indvars.iv
  store i8 1, ptr %37, align 8
  %.pre = load ptr, ptr @block_record_table, align 8
  %.phi.trans.insert = getelementptr inbounds nuw %struct.block_record_t, ptr %.pre, i64 %indvars.iv
  %.pre36 = load i32, ptr %.phi.trans.insert, align 8
  %38 = sext i32 %.pre36 to i64
  br label %39

39:                                               ; preds = %35, %.lr.ph
  %40 = phi i64 [ %38, %35 ], [ 0, %.lr.ph ]
  %41 = load i16, ptr @bblock_node_cnt, align 2
  %42 = zext i16 %41 to i32
  %43 = getelementptr inbounds [16 x i32], ptr @block_sizes, i64 0, i64 %40
  %44 = load i32, ptr %43, align 4
  %45 = mul i32 %44, %42
  %46 = load ptr, ptr %13, align 8
  %47 = getelementptr inbounds nuw %struct.topoinfo_bblock, ptr %46, i64 %indvars.iv, i32 4
  store i32 %45, ptr %47, align 8
  %indvars.iv.next = add nuw nsw i64 %indvars.iv, 1
  %48 = load i32, ptr %4, align 8
  %49 = zext i32 %48 to i64
  %50 = icmp samesign ult i64 %indvars.iv.next, %49
  br i1 %50, label %.lr.ph, label %.loopexit, !llvm.loop !14

51:                                               ; preds = %2
  %52 = load i32, ptr @block_record_cnt, align 4
  store i32 %52, ptr %1, align 4
  br label %.loopexit

53:                                               ; preds = %2
  store i32 1, ptr %1, align 4
  br label %.loopexit

54:                                               ; preds = %2
  %55 = tail call i32 (ptr, ...) @slurm_error(ptr noundef nonnull @.str.4, i32 noundef %0) #9
  br label %.loopexit

.loopexit:                                        ; preds = %39, %3, %54, %53, %51
  %.0 = phi i32 [ -1, %54 ], [ 0, %53 ], [ 0, %51 ], [ 0, %3 ], [ 0, %39 ]
  ret i32 %.0
}